
hello:     file format elf64-littleriscv


Disassembly of section .text:

0000000000010158 <exit>:
   10158:	ff010113          	addi	sp,sp,-16
   1015c:	00113423          	sd	ra,8(sp)
   10160:	00813023          	sd	s0,0(sp)
   10164:	00050413          	mv	s0,a0
   10168:	4b4000ef          	jal	ra,1061c <__funcs_on_exit>
   1016c:	4b4000ef          	jal	ra,10620 <__libc_exit_fini>
   10170:	4ac000ef          	jal	ra,1061c <__funcs_on_exit>
   10174:	00040513          	mv	a0,s0
   10178:	115000ef          	jal	ra,10a8c <_Exit>

000000000001017c <_start>:
   1017c:	00002197          	auipc	gp,0x2
   10180:	68418193          	addi	gp,gp,1668 # 12800 <__global_pointer$>
   10184:	00010513          	mv	a0,sp
   10188:	00000593          	li	a1,0
   1018c:	ff017113          	andi	sp,sp,-16
   10190:	0040006f          	j	10194 <_start_c>

0000000000010194 <_start_c>:
   10194:	00052583          	lw	a1,0(a0)
   10198:	000107b7          	lui	a5,0x10
   1019c:	00010737          	lui	a4,0x10
   101a0:	000106b7          	lui	a3,0x10
   101a4:	00850613          	addi	a2,a0,8
   101a8:	61c70713          	addi	a4,a4,1564 # 1061c <__funcs_on_exit>
   101ac:	29c78513          	addi	a0,a5,668 # 1029c <main>
   101b0:	32868693          	addi	a3,a3,808 # 10328 <_init>
   101b4:	00000793          	li	a5,0
   101b8:	4040006f          	j	105bc <__libc_start_main>

00000000000101bc <deregister_tm_clones>:
   101bc:	00012537          	lui	a0,0x12
   101c0:	00012737          	lui	a4,0x12
   101c4:	00050793          	mv	a5,a0
   101c8:	00070713          	mv	a4,a4
   101cc:	00f70a63          	beq	a4,a5,101e0 <deregister_tm_clones+0x24>
   101d0:	00000793          	li	a5,0
   101d4:	00078663          	beqz	a5,101e0 <deregister_tm_clones+0x24>
   101d8:	00050513          	mv	a0,a0
   101dc:	00078067          	jr	a5
   101e0:	00008067          	ret

00000000000101e4 <register_tm_clones>:
   101e4:	00012537          	lui	a0,0x12
   101e8:	00050793          	mv	a5,a0
   101ec:	00012737          	lui	a4,0x12
   101f0:	00070593          	mv	a1,a4
   101f4:	40f585b3          	sub	a1,a1,a5
   101f8:	4035d793          	srai	a5,a1,0x3
   101fc:	03f5d593          	srli	a1,a1,0x3f
   10200:	00f585b3          	add	a1,a1,a5
   10204:	4015d593          	srai	a1,a1,0x1
   10208:	00058a63          	beqz	a1,1021c <register_tm_clones+0x38>
   1020c:	00000793          	li	a5,0
   10210:	00078663          	beqz	a5,1021c <register_tm_clones+0x38>
   10214:	00050513          	mv	a0,a0
   10218:	00078067          	jr	a5
   1021c:	00008067          	ret

0000000000010220 <__do_global_dtors_aux>:
   10220:	ff010113          	addi	sp,sp,-16
   10224:	00813023          	sd	s0,0(sp)
   10228:	8401c783          	lbu	a5,-1984(gp) # 12040 <completed.1>
   1022c:	00113423          	sd	ra,8(sp)
   10230:	02079463          	bnez	a5,10258 <__do_global_dtors_aux+0x38>
   10234:	f89ff0ef          	jal	ra,101bc <deregister_tm_clones>
   10238:	00000793          	li	a5,0
   1023c:	00078a63          	beqz	a5,10250 <__do_global_dtors_aux+0x30>
   10240:	00011537          	lui	a0,0x11
   10244:	f4850513          	addi	a0,a0,-184 # 10f48 <__EH_FRAME_BEGIN__>
   10248:	00000097          	auipc	ra,0x0
   1024c:	000000e7          	jalr	zero # 0 <exit-0x10158>
   10250:	00100793          	li	a5,1
   10254:	84f18023          	sb	a5,-1984(gp) # 12040 <completed.1>
   10258:	00813083          	ld	ra,8(sp)
   1025c:	00013403          	ld	s0,0(sp)
   10260:	01010113          	addi	sp,sp,16
   10264:	00008067          	ret

0000000000010268 <frame_dummy>:
   10268:	00000793          	li	a5,0
   1026c:	02078663          	beqz	a5,10298 <frame_dummy+0x30>
   10270:	00011537          	lui	a0,0x11
   10274:	ff010113          	addi	sp,sp,-16
   10278:	84818593          	addi	a1,gp,-1976 # 12048 <object.0>
   1027c:	f4850513          	addi	a0,a0,-184 # 10f48 <__EH_FRAME_BEGIN__>
   10280:	00113423          	sd	ra,8(sp)
   10284:	00000097          	auipc	ra,0x0
   10288:	000000e7          	jalr	zero # 0 <exit-0x10158>
   1028c:	00813083          	ld	ra,8(sp)
   10290:	01010113          	addi	sp,sp,16
   10294:	f51ff06f          	j	101e4 <register_tm_clones>
   10298:	f4dff06f          	j	101e4 <register_tm_clones>

000000000001029c <main>:
   1029c:	fe010113          	addi	sp,sp,-32
   102a0:	00113c23          	sd	ra,24(sp)
   102a4:	00813823          	sd	s0,16(sp)
   102a8:	02010413          	addi	s0,sp,32
   102ac:	000027b7          	lui	a5,0x2
   102b0:	00878793          	addi	a5,a5,8 # 2008 <exit-0xe150>
   102b4:	fef43423          	sd	a5,-24(s0)
   102b8:	fe843783          	ld	a5,-24(s0)
   102bc:	04800713          	li	a4,72
   102c0:	00e78023          	sb	a4,0(a5)
   102c4:	fe843783          	ld	a5,-24(s0)
   102c8:	04500713          	li	a4,69
   102cc:	00e78023          	sb	a4,0(a5)
   102d0:	fe843783          	ld	a5,-24(s0)
   102d4:	04c00713          	li	a4,76
   102d8:	00e78023          	sb	a4,0(a5)
   102dc:	fe843783          	ld	a5,-24(s0)
   102e0:	06c00713          	li	a4,108
   102e4:	00e78023          	sb	a4,0(a5)
   102e8:	fe843783          	ld	a5,-24(s0)
   102ec:	04f00713          	li	a4,79
   102f0:	00e78023          	sb	a4,0(a5)
   102f4:	fe843783          	ld	a5,-24(s0)
   102f8:	00a00713          	li	a4,10
   102fc:	00e78023          	sb	a4,0(a5)
   10300:	fe043023          	sd	zero,-32(s0)
   10304:	0100006f          	j	10314 <main+0x78>
   10308:	fe043783          	ld	a5,-32(s0)
   1030c:	00178793          	addi	a5,a5,1
   10310:	fef43023          	sd	a5,-32(s0)
   10314:	fe043703          	ld	a4,-32(s0)
   10318:	009897b7          	lui	a5,0x989
   1031c:	67f78793          	addi	a5,a5,1663 # 98967f <__global_pointer$+0x976e7f>
   10320:	fee7d4e3          	bge	a5,a4,10308 <main+0x6c>
   10324:	f95ff06f          	j	102b8 <main+0x1c>

0000000000010328 <_init>:
   10328:	00008067          	ret

000000000001032c <__init_ssp>:
   1032c:	00008067          	ret

0000000000010330 <__init_libc>:
   10330:	e8010113          	addi	sp,sp,-384
   10334:	17213023          	sd	s2,352(sp)
   10338:	03010913          	addi	s2,sp,48
   1033c:	16813823          	sd	s0,368(sp)
   10340:	16913423          	sd	s1,360(sp)
   10344:	00050413          	mv	s0,a0
   10348:	00058493          	mv	s1,a1
   1034c:	00090513          	mv	a0,s2
   10350:	13000613          	li	a2,304
   10354:	00000593          	li	a1,0
   10358:	16113c23          	sd	ra,376(sp)
   1035c:	30c000ef          	jal	ra,10668 <memset>
   10360:	8281b823          	sd	s0,-2000(gp) # 12030 <__environ>
   10364:	00043783          	ld	a5,0(s0)
   10368:	1a078263          	beqz	a5,1050c <__init_libc+0x1dc>
   1036c:	00840713          	addi	a4,s0,8
   10370:	00000793          	li	a5,0
   10374:	00073683          	ld	a3,0(a4) # 12000 <__TMC_END__>
   10378:	00870713          	addi	a4,a4,8
   1037c:	00078613          	mv	a2,a5
   10380:	00178793          	addi	a5,a5,1
   10384:	fe0698e3          	bnez	a3,10374 <__init_libc+0x44>
   10388:	00260613          	addi	a2,a2,2
   1038c:	00361613          	slli	a2,a2,0x3
   10390:	00c40533          	add	a0,s0,a2
   10394:	87818413          	addi	s0,gp,-1928 # 12078 <__libc>
   10398:	00a43423          	sd	a0,8(s0)
   1039c:	00053783          	ld	a5,0(a0)
   103a0:	02500713          	li	a4,37
   103a4:	00850513          	addi	a0,a0,8
   103a8:	14078e63          	beqz	a5,10504 <__init_libc+0x1d4>
   103ac:	00f76a63          	bltu	a4,a5,103c0 <__init_libc+0x90>
   103b0:	00053683          	ld	a3,0(a0)
   103b4:	00379793          	slli	a5,a5,0x3
   103b8:	012787b3          	add	a5,a5,s2
   103bc:	00d7b023          	sd	a3,0(a5)
   103c0:	00853783          	ld	a5,8(a0)
   103c4:	01050513          	addi	a0,a0,16
   103c8:	fe0792e3          	bnez	a5,103ac <__init_libc+0x7c>
   103cc:	0b013683          	ld	a3,176(sp)
   103d0:	13013703          	ld	a4,304(sp)
   103d4:	82d1b423          	sd	a3,-2008(gp) # 12028 <__hwcap>
   103d8:	06013783          	ld	a5,96(sp)
   103dc:	00070463          	beqz	a4,103e4 <__init_libc+0xb4>
   103e0:	80e1b823          	sd	a4,-2032(gp) # 12010 <__sysinfo>
   103e4:	02f43823          	sd	a5,48(s0)
   103e8:	10048663          	beqz	s1,104f4 <__init_libc+0x1c4>
   103ec:	8091bc23          	sd	s1,-2024(gp) # 12018 <__progname_full>
   103f0:	8291b023          	sd	s1,-2016(gp) # 12020 <__progname>
   103f4:	0004c783          	lbu	a5,0(s1)
   103f8:	00148593          	addi	a1,s1,1
   103fc:	02f00713          	li	a4,47
   10400:	00078c63          	beqz	a5,10418 <__init_libc+0xe8>
   10404:	00e79463          	bne	a5,a4,1040c <__init_libc+0xdc>
   10408:	82b1b023          	sd	a1,-2016(gp) # 12020 <__progname>
   1040c:	0005c783          	lbu	a5,0(a1)
   10410:	00158593          	addi	a1,a1,1
   10414:	fe0798e3          	bnez	a5,10404 <__init_libc+0xd4>
   10418:	00090513          	mv	a0,s2
   1041c:	4b0000ef          	jal	ra,108cc <__init_tls>
   10420:	0f813503          	ld	a0,248(sp)
   10424:	f09ff0ef          	jal	ra,1032c <__init_ssp>
   10428:	08813703          	ld	a4,136(sp)
   1042c:	09013783          	ld	a5,144(sp)
   10430:	0af70663          	beq	a4,a5,104dc <__init_libc+0x1ac>
   10434:	02013023          	sd	zero,32(sp)
   10438:	02013423          	sd	zero,40(sp)
   1043c:	00100713          	li	a4,1
   10440:	00200793          	li	a5,2
   10444:	02e12023          	sw	a4,32(sp)
   10448:	00013c23          	sd	zero,24(sp)
   1044c:	00013423          	sd	zero,8(sp)
   10450:	00013823          	sd	zero,16(sp)
   10454:	02f12423          	sw	a5,40(sp)
   10458:	01810513          	addi	a0,sp,24
   1045c:	04900893          	li	a7,73
   10460:	00300593          	li	a1,3
   10464:	00810613          	addi	a2,sp,8
   10468:	00000693          	li	a3,0
   1046c:	00800713          	li	a4,8
   10470:	00000073          	ecall
   10474:	02051713          	slli	a4,a0,0x20
   10478:	01810793          	addi	a5,sp,24
   1047c:	000116b7          	lui	a3,0x11
   10480:	04074a63          	bltz	a4,104d4 <__init_libc+0x1a4>
   10484:	0067d703          	lhu	a4,6(a5)
   10488:	02077713          	andi	a4,a4,32
   1048c:	02070063          	beqz	a4,104ac <__init_libc+0x17c>
   10490:	00008637          	lui	a2,0x8
   10494:	00260613          	addi	a2,a2,2 # 8002 <exit-0x8156>
   10498:	03800893          	li	a7,56
   1049c:	f9c00513          	li	a0,-100
   104a0:	f3068593          	addi	a1,a3,-208 # 10f30 <__set_thread_area+0xc>
   104a4:	00000073          	ecall
   104a8:	02054663          	bltz	a0,104d4 <__init_libc+0x1a4>
   104ac:	00878793          	addi	a5,a5,8
   104b0:	fd279ae3          	bne	a5,s2,10484 <__init_libc+0x154>
   104b4:	00100793          	li	a5,1
   104b8:	00f40123          	sb	a5,2(s0)
   104bc:	17813083          	ld	ra,376(sp)
   104c0:	17013403          	ld	s0,368(sp)
   104c4:	16813483          	ld	s1,360(sp)
   104c8:	16013903          	ld	s2,352(sp)
   104cc:	18010113          	addi	sp,sp,384
   104d0:	00008067          	ret
   104d4:	00000023          	sb	zero,0(zero) # 0 <exit-0x10158>
   104d8:	00100073          	ebreak
   104dc:	09813703          	ld	a4,152(sp)
   104e0:	0a013783          	ld	a5,160(sp)
   104e4:	f4f718e3          	bne	a4,a5,10434 <__init_libc+0x104>
   104e8:	0e813783          	ld	a5,232(sp)
   104ec:	f40794e3          	bnez	a5,10434 <__init_libc+0x104>
   104f0:	fcdff06f          	j	104bc <__init_libc+0x18c>
   104f4:	12813583          	ld	a1,296(sp)
   104f8:	00058e63          	beqz	a1,10514 <__init_libc+0x1e4>
   104fc:	00058493          	mv	s1,a1
   10500:	eedff06f          	j	103ec <__init_libc+0xbc>
   10504:	8201b423          	sd	zero,-2008(gp) # 12028 <__hwcap>
   10508:	eddff06f          	j	103e4 <__init_libc+0xb4>
   1050c:	00800613          	li	a2,8
   10510:	e81ff06f          	j	10390 <__init_libc+0x60>
   10514:	000117b7          	lui	a5,0x11
   10518:	f4078793          	addi	a5,a5,-192 # 10f40 <__set_thread_area+0x1c>
   1051c:	80f1bc23          	sd	a5,-2024(gp) # 12018 <__progname_full>
   10520:	82f1b023          	sd	a5,-2016(gp) # 12020 <__progname>
   10524:	ef5ff06f          	j	10418 <__init_libc+0xe8>

0000000000010528 <__libc_start_init>:
   10528:	fe010113          	addi	sp,sp,-32
   1052c:	00813823          	sd	s0,16(sp)
   10530:	00913423          	sd	s1,8(sp)
   10534:	00012437          	lui	s0,0x12
   10538:	000124b7          	lui	s1,0x12
   1053c:	ff040413          	addi	s0,s0,-16 # 11ff0 <__frame_dummy_init_array_entry>
   10540:	ff848493          	addi	s1,s1,-8 # 11ff8 <__do_global_dtors_aux_fini_array_entry>
   10544:	00113c23          	sd	ra,24(sp)
   10548:	de1ff0ef          	jal	ra,10328 <_init>
   1054c:	00947a63          	bgeu	s0,s1,10560 <__libc_start_init+0x38>
   10550:	00043783          	ld	a5,0(s0)
   10554:	00840413          	addi	s0,s0,8
   10558:	000780e7          	jalr	a5
   1055c:	fe946ae3          	bltu	s0,s1,10550 <__libc_start_init+0x28>
   10560:	01813083          	ld	ra,24(sp)
   10564:	01013403          	ld	s0,16(sp)
   10568:	00813483          	ld	s1,8(sp)
   1056c:	02010113          	addi	sp,sp,32
   10570:	00008067          	ret

0000000000010574 <libc_start_main_stage2>:
   10574:	fd010113          	addi	sp,sp,-48
   10578:	02813023          	sd	s0,32(sp)
   1057c:	00158413          	addi	s0,a1,1
   10580:	00341413          	slli	s0,s0,0x3
   10584:	02113423          	sd	ra,40(sp)
   10588:	00913c23          	sd	s1,24(sp)
   1058c:	01213823          	sd	s2,16(sp)
   10590:	00058493          	mv	s1,a1
   10594:	00060913          	mv	s2,a2
   10598:	01313423          	sd	s3,8(sp)
   1059c:	00860433          	add	s0,a2,s0
   105a0:	00050993          	mv	s3,a0
   105a4:	f85ff0ef          	jal	ra,10528 <__libc_start_init>
   105a8:	00040613          	mv	a2,s0
   105ac:	00090593          	mv	a1,s2
   105b0:	00048513          	mv	a0,s1
   105b4:	000980e7          	jalr	s3
   105b8:	ba1ff0ef          	jal	ra,10158 <exit>

00000000000105bc <__libc_start_main>:
   105bc:	fe010113          	addi	sp,sp,-32
   105c0:	00813823          	sd	s0,16(sp)
   105c4:	00913423          	sd	s1,8(sp)
   105c8:	01213023          	sd	s2,0(sp)
   105cc:	00113c23          	sd	ra,24(sp)
   105d0:	00058493          	mv	s1,a1
   105d4:	00158793          	addi	a5,a1,1
   105d8:	00063583          	ld	a1,0(a2)
   105dc:	00379793          	slli	a5,a5,0x3
   105e0:	00050913          	mv	s2,a0
   105e4:	00f60533          	add	a0,a2,a5
   105e8:	00060413          	mv	s0,a2
   105ec:	d45ff0ef          	jal	ra,10330 <__init_libc>
   105f0:	000107b7          	lui	a5,0x10
   105f4:	00040613          	mv	a2,s0
   105f8:	57478793          	addi	a5,a5,1396 # 10574 <libc_start_main_stage2>
   105fc:	01013403          	ld	s0,16(sp)
   10600:	01813083          	ld	ra,24(sp)
   10604:	00048593          	mv	a1,s1
   10608:	00090513          	mv	a0,s2
   1060c:	00813483          	ld	s1,8(sp)
   10610:	00013903          	ld	s2,0(sp)
   10614:	02010113          	addi	sp,sp,32
   10618:	00078067          	jr	a5

000000000001061c <__funcs_on_exit>:
   1061c:	00008067          	ret

0000000000010620 <__libc_exit_fini>:
   10620:	fe010113          	addi	sp,sp,-32
   10624:	00813823          	sd	s0,16(sp)
   10628:	00913423          	sd	s1,8(sp)
   1062c:	00012437          	lui	s0,0x12
   10630:	000124b7          	lui	s1,0x12
   10634:	00113c23          	sd	ra,24(sp)
   10638:	00040413          	mv	s0,s0
   1063c:	ff848493          	addi	s1,s1,-8 # 11ff8 <__do_global_dtors_aux_fini_array_entry>
   10640:	0084fa63          	bgeu	s1,s0,10654 <__libc_exit_fini+0x34>
   10644:	ff843783          	ld	a5,-8(s0) # 11ff8 <__do_global_dtors_aux_fini_array_entry>
   10648:	ff840413          	addi	s0,s0,-8
   1064c:	000780e7          	jalr	a5
   10650:	fe84eae3          	bltu	s1,s0,10644 <__libc_exit_fini+0x24>
   10654:	01013403          	ld	s0,16(sp)
   10658:	01813083          	ld	ra,24(sp)
   1065c:	00813483          	ld	s1,8(sp)
   10660:	02010113          	addi	sp,sp,32
   10664:	fb9ff06f          	j	1061c <__funcs_on_exit>

0000000000010668 <memset>:
   10668:	10060263          	beqz	a2,1076c <memset+0x104>
   1066c:	0ff5f793          	zext.b	a5,a1
   10670:	00f50023          	sb	a5,0(a0)
   10674:	00c50733          	add	a4,a0,a2
   10678:	fef70fa3          	sb	a5,-1(a4)
   1067c:	00200693          	li	a3,2
   10680:	0ec6f663          	bgeu	a3,a2,1076c <memset+0x104>
   10684:	00f500a3          	sb	a5,1(a0)
   10688:	00f50123          	sb	a5,2(a0)
   1068c:	fef70f23          	sb	a5,-2(a4)
   10690:	fef70ea3          	sb	a5,-3(a4)
   10694:	00600693          	li	a3,6
   10698:	0cc6fa63          	bgeu	a3,a2,1076c <memset+0x104>
   1069c:	00f501a3          	sb	a5,3(a0)
   106a0:	fef70e23          	sb	a5,-4(a4)
   106a4:	00800813          	li	a6,8
   106a8:	0cc87263          	bgeu	a6,a2,1076c <memset+0x104>
   106ac:	0ff5f593          	zext.b	a1,a1
   106b0:	0085979b          	slliw	a5,a1,0x8
   106b4:	40a00733          	neg	a4,a0
   106b8:	00b787bb          	addw	a5,a5,a1
   106bc:	00377713          	andi	a4,a4,3
   106c0:	0107969b          	slliw	a3,a5,0x10
   106c4:	40e60633          	sub	a2,a2,a4
   106c8:	00f686bb          	addw	a3,a3,a5
   106cc:	00e50733          	add	a4,a0,a4
   106d0:	ffc67613          	andi	a2,a2,-4
   106d4:	00d72023          	sw	a3,0(a4)
   106d8:	00c707b3          	add	a5,a4,a2
   106dc:	fed7ae23          	sw	a3,-4(a5)
   106e0:	08c87663          	bgeu	a6,a2,1076c <memset+0x104>
   106e4:	00d72223          	sw	a3,4(a4)
   106e8:	00d72423          	sw	a3,8(a4)
   106ec:	fed7aa23          	sw	a3,-12(a5)
   106f0:	fed7ac23          	sw	a3,-8(a5)
   106f4:	01800593          	li	a1,24
   106f8:	06c5fa63          	bgeu	a1,a2,1076c <memset+0x104>
   106fc:	00477593          	andi	a1,a4,4
   10700:	00d72623          	sw	a3,12(a4)
   10704:	00d72823          	sw	a3,16(a4)
   10708:	00d72a23          	sw	a3,20(a4)
   1070c:	00d72c23          	sw	a3,24(a4)
   10710:	02069813          	slli	a6,a3,0x20
   10714:	01858593          	addi	a1,a1,24
   10718:	fed7a223          	sw	a3,-28(a5)
   1071c:	fed7a423          	sw	a3,-24(a5)
   10720:	fed7a623          	sw	a3,-20(a5)
   10724:	fed7a823          	sw	a3,-16(a5)
   10728:	02085813          	srli	a6,a6,0x20
   1072c:	02069693          	slli	a3,a3,0x20
   10730:	40b60633          	sub	a2,a2,a1
   10734:	01f00793          	li	a5,31
   10738:	00b70733          	add	a4,a4,a1
   1073c:	010686b3          	add	a3,a3,a6
   10740:	02c7f663          	bgeu	a5,a2,1076c <memset+0x104>
   10744:	fe060613          	addi	a2,a2,-32
   10748:	fe067793          	andi	a5,a2,-32
   1074c:	02078793          	addi	a5,a5,32
   10750:	00f707b3          	add	a5,a4,a5
   10754:	00d73023          	sd	a3,0(a4)
   10758:	00d73423          	sd	a3,8(a4)
   1075c:	00d73823          	sd	a3,16(a4)
   10760:	00d73c23          	sd	a3,24(a4)
   10764:	02070713          	addi	a4,a4,32
   10768:	fef716e3          	bne	a4,a5,10754 <memset+0xec>
   1076c:	00008067          	ret

0000000000010770 <__init_tp>:
   10770:	ff010113          	addi	sp,sp,-16
   10774:	00813023          	sd	s0,0(sp)
   10778:	00113423          	sd	ra,8(sp)
   1077c:	00050413          	mv	s0,a0
   10780:	00a53023          	sd	a0,0(a0)
   10784:	0c850513          	addi	a0,a0,200
   10788:	79c000ef          	jal	ra,10f24 <__set_thread_area>
   1078c:	06054063          	bltz	a0,107ec <__init_tp+0x7c>
   10790:	04050863          	beqz	a0,107e0 <__init_tp+0x70>
   10794:	00200793          	li	a5,2
   10798:	02f42423          	sw	a5,40(s0)
   1079c:	83818513          	addi	a0,gp,-1992 # 12038 <__thread_list_lock>
   107a0:	06000893          	li	a7,96
   107a4:	00000073          	ecall
   107a8:	8101b703          	ld	a4,-2032(gp) # 12010 <__sysinfo>
   107ac:	8b018793          	addi	a5,gp,-1872 # 120b0 <__libc+0x38>
   107b0:	07840693          	addi	a3,s0,120
   107b4:	02a42023          	sw	a0,32(s0)
   107b8:	00843423          	sd	s0,8(s0)
   107bc:	00843823          	sd	s0,16(s0)
   107c0:	08f43c23          	sd	a5,152(s0)
   107c4:	06d43c23          	sd	a3,120(s0)
   107c8:	00e43c23          	sd	a4,24(s0)
   107cc:	00000513          	li	a0,0
   107d0:	00813083          	ld	ra,8(sp)
   107d4:	00013403          	ld	s0,0(sp)
   107d8:	01010113          	addi	sp,sp,16
   107dc:	00008067          	ret
   107e0:	00100713          	li	a4,1
   107e4:	86e18c23          	sb	a4,-1928(gp) # 12078 <__libc>
   107e8:	fadff06f          	j	10794 <__init_tp+0x24>
   107ec:	fff00513          	li	a0,-1
   107f0:	fe1ff06f          	j	107d0 <__init_tp+0x60>

00000000000107f4 <__copy_tls>:
   107f4:	fc010113          	addi	sp,sp,-64
   107f8:	01513423          	sd	s5,8(sp)
   107fc:	01613023          	sd	s6,0(sp)
   10800:	02113c23          	sd	ra,56(sp)
   10804:	02813823          	sd	s0,48(sp)
   10808:	01413823          	sd	s4,16(sp)
   1080c:	87818a93          	addi	s5,gp,-1928 # 12078 <__libc>
   10810:	020aba03          	ld	s4,32(s5)
   10814:	028ab683          	ld	a3,40(s5)
   10818:	018ab783          	ld	a5,24(s5)
   1081c:	f3800713          	li	a4,-200
   10820:	40a70733          	sub	a4,a4,a0
   10824:	fffa0a13          	addi	s4,s4,-1
   10828:	010ab403          	ld	s0,16(s5)
   1082c:	00ea7a33          	and	s4,s4,a4
   10830:	ff878793          	addi	a5,a5,-8
   10834:	00369713          	slli	a4,a3,0x3
   10838:	40e787b3          	sub	a5,a5,a4
   1083c:	01450a33          	add	s4,a0,s4
   10840:	00f50b33          	add	s6,a0,a5
   10844:	06040063          	beqz	s0,108a4 <__copy_tls+0xb0>
   10848:	01313c23          	sd	s3,24(sp)
   1084c:	000019b7          	lui	s3,0x1
   10850:	02913423          	sd	s1,40(sp)
   10854:	03213023          	sd	s2,32(sp)
   10858:	80098993          	addi	s3,s3,-2048 # 800 <exit-0xf958>
   1085c:	0c8a0913          	addi	s2,s4,200
   10860:	008b0493          	addi	s1,s6,8
   10864:	02843783          	ld	a5,40(s0)
   10868:	00848493          	addi	s1,s1,8
   1086c:	00f907b3          	add	a5,s2,a5
   10870:	013787b3          	add	a5,a5,s3
   10874:	fef4bc23          	sd	a5,-8(s1)
   10878:	02843503          	ld	a0,40(s0)
   1087c:	01043603          	ld	a2,16(s0)
   10880:	00843583          	ld	a1,8(s0)
   10884:	00a90533          	add	a0,s2,a0
   10888:	220000ef          	jal	ra,10aa8 <memcpy>
   1088c:	00043403          	ld	s0,0(s0)
   10890:	fc041ae3          	bnez	s0,10864 <__copy_tls+0x70>
   10894:	028ab683          	ld	a3,40(s5)
   10898:	02813483          	ld	s1,40(sp)
   1089c:	02013903          	ld	s2,32(sp)
   108a0:	01813983          	ld	s3,24(sp)
   108a4:	00db3023          	sd	a3,0(s6)
   108a8:	0d6a3023          	sd	s6,192(s4)
   108ac:	03813083          	ld	ra,56(sp)
   108b0:	03013403          	ld	s0,48(sp)
   108b4:	00813a83          	ld	s5,8(sp)
   108b8:	00013b03          	ld	s6,0(sp)
   108bc:	000a0513          	mv	a0,s4
   108c0:	01013a03          	ld	s4,16(sp)
   108c4:	04010113          	addi	sp,sp,64
   108c8:	00008067          	ret

00000000000108cc <__init_tls>:
   108cc:	ff010113          	addi	sp,sp,-16
   108d0:	00113423          	sd	ra,8(sp)
   108d4:	02853683          	ld	a3,40(a0)
   108d8:	01853f03          	ld	t5,24(a0)
   108dc:	18068c63          	beqz	a3,10a74 <__init_tls+0x1a8>
   108e0:	6474ee37          	lui	t3,0x6474e
   108e4:	02053503          	ld	a0,32(a0)
   108e8:	000f0793          	mv	a5,t5
   108ec:	551e0e13          	addi	t3,t3,1361 # 6474e551 <__global_pointer$+0x6473bd51>
   108f0:	00000613          	li	a2,0
   108f4:	00000813          	li	a6,0
   108f8:	00600593          	li	a1,6
   108fc:	00200893          	li	a7,2
   10900:	00700293          	li	t0,7
   10904:	008003b7          	lui	t2,0x800
   10908:	0240006f          	j	1092c <__init_tls+0x60>
   1090c:	0f171a63          	bne	a4,a7,10a00 <__init_tls+0x134>
   10910:	00000713          	li	a4,0
   10914:	00070663          	beqz	a4,10920 <__init_tls+0x54>
   10918:	0107b603          	ld	a2,16(a5)
   1091c:	40c70633          	sub	a2,a4,a2
   10920:	fff68693          	addi	a3,a3,-1
   10924:	00a787b3          	add	a5,a5,a0
   10928:	02068063          	beqz	a3,10948 <__init_tls+0x7c>
   1092c:	0007a703          	lw	a4,0(a5)
   10930:	fcb71ee3          	bne	a4,a1,1090c <__init_tls+0x40>
   10934:	0107b603          	ld	a2,16(a5)
   10938:	fff68693          	addi	a3,a3,-1
   1093c:	00a787b3          	add	a5,a5,a0
   10940:	40cf0633          	sub	a2,t5,a2
   10944:	fe0694e3          	bnez	a3,1092c <__init_tls+0x60>
   10948:	12080663          	beqz	a6,10a74 <__init_tls+0x1a8>
   1094c:	01083583          	ld	a1,16(a6)
   10950:	02083503          	ld	a0,32(a6)
   10954:	03083703          	ld	a4,48(a6)
   10958:	8e018793          	addi	a5,gp,-1824 # 120e0 <main_tls>
   1095c:	00b60633          	add	a2,a2,a1
   10960:	87818693          	addi	a3,gp,-1928 # 12078 <__libc>
   10964:	00100593          	li	a1,1
   10968:	02883803          	ld	a6,40(a6)
   1096c:	00c7b423          	sd	a2,8(a5)
   10970:	00a7b823          	sd	a0,16(a5)
   10974:	02e7b023          	sd	a4,32(a5)
   10978:	00f6b823          	sd	a5,16(a3)
   1097c:	02b6b423          	sd	a1,40(a3)
   10980:	00c805b3          	add	a1,a6,a2
   10984:	fff70513          	addi	a0,a4,-1
   10988:	40b005b3          	neg	a1,a1
   1098c:	00a5f5b3          	and	a1,a1,a0
   10990:	00c57633          	and	a2,a0,a2
   10994:	010585b3          	add	a1,a1,a6
   10998:	00b7bc23          	sd	a1,24(a5)
   1099c:	02c7b423          	sd	a2,40(a5)
   109a0:	00700513          	li	a0,7
   109a4:	08e57463          	bgeu	a0,a4,10a2c <__init_tls+0x160>
   109a8:	0df70793          	addi	a5,a4,223
   109ac:	00c585b3          	add	a1,a1,a2
   109b0:	00f585b3          	add	a1,a1,a5
   109b4:	ff85f593          	andi	a1,a1,-8
   109b8:	00b6bc23          	sd	a1,24(a3)
   109bc:	02e6b023          	sd	a4,32(a3)
   109c0:	15000793          	li	a5,336
   109c4:	08b7f863          	bgeu	a5,a1,10a54 <__init_tls+0x188>
   109c8:	0de00893          	li	a7,222
   109cc:	00000513          	li	a0,0
   109d0:	00300613          	li	a2,3
   109d4:	02200693          	li	a3,34
   109d8:	fff00713          	li	a4,-1
   109dc:	00000793          	li	a5,0
   109e0:	00000073          	ecall
   109e4:	e11ff0ef          	jal	ra,107f4 <__copy_tls>
   109e8:	d89ff0ef          	jal	ra,10770 <__init_tp>
   109ec:	fff00793          	li	a5,-1
   109f0:	06f50e63          	beq	a0,a5,10a6c <__init_tls+0x1a0>
   109f4:	00813083          	ld	ra,8(sp)
   109f8:	01010113          	addi	sp,sp,16
   109fc:	00008067          	ret
   10a00:	00571663          	bne	a4,t0,10a0c <__init_tls+0x140>
   10a04:	00078813          	mv	a6,a5
   10a08:	f19ff06f          	j	10920 <__init_tls+0x54>
   10a0c:	f1c71ae3          	bne	a4,t3,10920 <__init_tls+0x54>
   10a10:	0287b703          	ld	a4,40(a5)
   10a14:	80c1e303          	lwu	t1,-2036(gp) # 1200c <__default_stacksize>
   10a18:	f0e374e3          	bgeu	t1,a4,10920 <__init_tls+0x54>
   10a1c:	00e3f463          	bgeu	t2,a4,10a24 <__init_tls+0x158>
   10a20:	00800737          	lui	a4,0x800
   10a24:	80e1a623          	sw	a4,-2036(gp) # 1200c <__default_stacksize>
   10a28:	ef9ff06f          	j	10920 <__init_tls+0x54>
   10a2c:	00800713          	li	a4,8
   10a30:	02e7b023          	sd	a4,32(a5)
   10a34:	00c585b3          	add	a1,a1,a2
   10a38:	0e700793          	li	a5,231
   10a3c:	00f585b3          	add	a1,a1,a5
   10a40:	ff85f593          	andi	a1,a1,-8
   10a44:	00b6bc23          	sd	a1,24(a3)
   10a48:	02e6b023          	sd	a4,32(a3)
   10a4c:	15000793          	li	a5,336
   10a50:	f6b7ece3          	bltu	a5,a1,109c8 <__init_tls+0xfc>
   10a54:	00012537          	lui	a0,0x12
   10a58:	11050513          	addi	a0,a0,272 # 12110 <builtin_tls>
   10a5c:	d99ff0ef          	jal	ra,107f4 <__copy_tls>
   10a60:	d11ff0ef          	jal	ra,10770 <__init_tp>
   10a64:	fff00793          	li	a5,-1
   10a68:	f8f516e3          	bne	a0,a5,109f4 <__init_tls+0x128>
   10a6c:	00000023          	sb	zero,0(zero) # 0 <exit-0x10158>
   10a70:	00100073          	ebreak
   10a74:	8e018793          	addi	a5,gp,-1824 # 120e0 <main_tls>
   10a78:	0187b803          	ld	a6,24(a5)
   10a7c:	0087b603          	ld	a2,8(a5)
   10a80:	0207b703          	ld	a4,32(a5)
   10a84:	87818693          	addi	a3,gp,-1928 # 12078 <__libc>
   10a88:	ef9ff06f          	j	10980 <__init_tls+0xb4>

0000000000010a8c <_Exit>:
   10a8c:	00050793          	mv	a5,a0
   10a90:	05e00893          	li	a7,94
   10a94:	00000073          	ecall
   10a98:	05d00893          	li	a7,93
   10a9c:	00078513          	mv	a0,a5
   10aa0:	00000073          	ecall
   10aa4:	ff5ff06f          	j	10a98 <_Exit+0xc>

0000000000010aa8 <memcpy>:
   10aa8:	0035f713          	andi	a4,a1,3
   10aac:	00050793          	mv	a5,a0
   10ab0:	02070263          	beqz	a4,10ad4 <memcpy+0x2c>
   10ab4:	30060a63          	beqz	a2,10dc8 <memcpy+0x320>
   10ab8:	0005c683          	lbu	a3,0(a1)
   10abc:	00158593          	addi	a1,a1,1
   10ac0:	0035f713          	andi	a4,a1,3
   10ac4:	00d78023          	sb	a3,0(a5)
   10ac8:	00178793          	addi	a5,a5,1
   10acc:	fff60613          	addi	a2,a2,-1
   10ad0:	fe0712e3          	bnez	a4,10ab4 <memcpy+0xc>
   10ad4:	0037f693          	andi	a3,a5,3
   10ad8:	00078f13          	mv	t5,a5
   10adc:	0c069863          	bnez	a3,10bac <memcpy+0x104>
   10ae0:	00f00713          	li	a4,15
   10ae4:	42c77c63          	bgeu	a4,a2,10f1c <memcpy+0x474>
   10ae8:	ff060e93          	addi	t4,a2,-16
   10aec:	ff0efe13          	andi	t3,t4,-16
   10af0:	010e0e13          	addi	t3,t3,16
   10af4:	01c78e33          	add	t3,a5,t3
   10af8:	00058713          	mv	a4,a1
   10afc:	00072303          	lw	t1,0(a4) # 800000 <__global_pointer$+0x7ed800>
   10b00:	00472883          	lw	a7,4(a4)
   10b04:	00872803          	lw	a6,8(a4)
   10b08:	00c72683          	lw	a3,12(a4)
   10b0c:	0067a023          	sw	t1,0(a5)
   10b10:	0117a223          	sw	a7,4(a5)
   10b14:	0107a423          	sw	a6,8(a5)
   10b18:	00d7a623          	sw	a3,12(a5)
   10b1c:	01078793          	addi	a5,a5,16
   10b20:	01070713          	addi	a4,a4,16
   10b24:	fcfe1ce3          	bne	t3,a5,10afc <memcpy+0x54>
   10b28:	ff0ef713          	andi	a4,t4,-16
   10b2c:	010f0f13          	addi	t5,t5,16
   10b30:	01058593          	addi	a1,a1,16
   10b34:	00ef07b3          	add	a5,t5,a4
   10b38:	00e585b3          	add	a1,a1,a4
   10b3c:	00f67713          	andi	a4,a2,15
   10b40:	00877693          	andi	a3,a4,8
   10b44:	00068e63          	beqz	a3,10b60 <memcpy+0xb8>
   10b48:	0005a603          	lw	a2,0(a1)
   10b4c:	0045a683          	lw	a3,4(a1)
   10b50:	00878793          	addi	a5,a5,8
   10b54:	fec7ac23          	sw	a2,-8(a5)
   10b58:	fed7ae23          	sw	a3,-4(a5)
   10b5c:	00858593          	addi	a1,a1,8
   10b60:	00477693          	andi	a3,a4,4
   10b64:	00068a63          	beqz	a3,10b78 <memcpy+0xd0>
   10b68:	0005a683          	lw	a3,0(a1)
   10b6c:	00478793          	addi	a5,a5,4
   10b70:	00458593          	addi	a1,a1,4
   10b74:	fed7ae23          	sw	a3,-4(a5)
   10b78:	00277693          	andi	a3,a4,2
   10b7c:	00068e63          	beqz	a3,10b98 <memcpy+0xf0>
   10b80:	0005c603          	lbu	a2,0(a1)
   10b84:	0015c683          	lbu	a3,1(a1)
   10b88:	00278793          	addi	a5,a5,2
   10b8c:	fec78f23          	sb	a2,-2(a5)
   10b90:	fed78fa3          	sb	a3,-1(a5)
   10b94:	00258593          	addi	a1,a1,2
   10b98:	00177713          	andi	a4,a4,1
   10b9c:	00070663          	beqz	a4,10ba8 <memcpy+0x100>
   10ba0:	0005c703          	lbu	a4,0(a1)
   10ba4:	00e78023          	sb	a4,0(a5)
   10ba8:	00008067          	ret
   10bac:	ff010113          	addi	sp,sp,-16
   10bb0:	00813423          	sd	s0,8(sp)
   10bb4:	01f00713          	li	a4,31
   10bb8:	0cc77263          	bgeu	a4,a2,10c7c <memcpy+0x1d4>
   10bbc:	00200813          	li	a6,2
   10bc0:	0005c883          	lbu	a7,0(a1)
   10bc4:	0005a703          	lw	a4,0(a1)
   10bc8:	2d068063          	beq	a3,a6,10e88 <memcpy+0x3e0>
   10bcc:	00300813          	li	a6,3
   10bd0:	fec60293          	addi	t0,a2,-20
   10bd4:	23068863          	beq	a3,a6,10e04 <memcpy+0x35c>
   10bd8:	0015c803          	lbu	a6,1(a1)
   10bdc:	0025c683          	lbu	a3,2(a1)
   10be0:	ff02f293          	andi	t0,t0,-16
   10be4:	01328f93          	addi	t6,t0,19
   10be8:	00358593          	addi	a1,a1,3
   10bec:	00378393          	addi	t2,a5,3
   10bf0:	01178023          	sb	a7,0(a5)
   10bf4:	01f78fb3          	add	t6,a5,t6
   10bf8:	010780a3          	sb	a6,1(a5)
   10bfc:	00d78123          	sb	a3,2(a5)
   10c00:	00058313          	mv	t1,a1
   10c04:	00038793          	mv	a5,t2
   10c08:	00132883          	lw	a7,1(t1)
   10c0c:	00532803          	lw	a6,5(t1)
   10c10:	00932683          	lw	a3,9(t1)
   10c14:	01875e1b          	srliw	t3,a4,0x18
   10c18:	00d32703          	lw	a4,13(t1)
   10c1c:	00889f1b          	slliw	t5,a7,0x8
   10c20:	00881e9b          	slliw	t4,a6,0x8
   10c24:	0188d89b          	srliw	a7,a7,0x18
   10c28:	01ee6e33          	or	t3,t3,t5
   10c2c:	01d8e8b3          	or	a7,a7,t4
   10c30:	00869f1b          	slliw	t5,a3,0x8
   10c34:	0188581b          	srliw	a6,a6,0x18
   10c38:	0186d69b          	srliw	a3,a3,0x18
   10c3c:	00871e9b          	slliw	t4,a4,0x8
   10c40:	01e86833          	or	a6,a6,t5
   10c44:	01d6e6b3          	or	a3,a3,t4
   10c48:	01c7a023          	sw	t3,0(a5)
   10c4c:	0117a223          	sw	a7,4(a5)
   10c50:	0107a423          	sw	a6,8(a5)
   10c54:	00d7a623          	sw	a3,12(a5)
   10c58:	01078793          	addi	a5,a5,16
   10c5c:	01030313          	addi	t1,t1,16
   10c60:	faff94e3          	bne	t6,a5,10c08 <memcpy+0x160>
   10c64:	fed60613          	addi	a2,a2,-19
   10c68:	01038393          	addi	t2,t2,16 # 800010 <__global_pointer$+0x7ed810>
   10c6c:	01058593          	addi	a1,a1,16
   10c70:	40560633          	sub	a2,a2,t0
   10c74:	005387b3          	add	a5,t2,t0
   10c78:	005585b3          	add	a1,a1,t0
   10c7c:	01067713          	andi	a4,a2,16
   10c80:	08070663          	beqz	a4,10d0c <memcpy+0x264>
   10c84:	0005c883          	lbu	a7,0(a1)
   10c88:	0015c803          	lbu	a6,1(a1)
   10c8c:	0025c683          	lbu	a3,2(a1)
   10c90:	0035c703          	lbu	a4,3(a1)
   10c94:	0045c403          	lbu	s0,4(a1)
   10c98:	0055c383          	lbu	t2,5(a1)
   10c9c:	0065c283          	lbu	t0,6(a1)
   10ca0:	0075cf83          	lbu	t6,7(a1)
   10ca4:	0085cf03          	lbu	t5,8(a1)
   10ca8:	0095ce83          	lbu	t4,9(a1)
   10cac:	00a5ce03          	lbu	t3,10(a1)
   10cb0:	00b5c303          	lbu	t1,11(a1)
   10cb4:	01178023          	sb	a7,0(a5)
   10cb8:	010780a3          	sb	a6,1(a5)
   10cbc:	00c5c883          	lbu	a7,12(a1)
   10cc0:	00d5c803          	lbu	a6,13(a1)
   10cc4:	00d78123          	sb	a3,2(a5)
   10cc8:	00e781a3          	sb	a4,3(a5)
   10ccc:	00e5c683          	lbu	a3,14(a1)
   10cd0:	00f5c703          	lbu	a4,15(a1)
   10cd4:	00878223          	sb	s0,4(a5)
   10cd8:	007782a3          	sb	t2,5(a5)
   10cdc:	00578323          	sb	t0,6(a5)
   10ce0:	01f783a3          	sb	t6,7(a5)
   10ce4:	01e78423          	sb	t5,8(a5)
   10ce8:	01d784a3          	sb	t4,9(a5)
   10cec:	01c78523          	sb	t3,10(a5)
   10cf0:	006785a3          	sb	t1,11(a5)
   10cf4:	01178623          	sb	a7,12(a5)
   10cf8:	010786a3          	sb	a6,13(a5)
   10cfc:	00d78723          	sb	a3,14(a5)
   10d00:	00e787a3          	sb	a4,15(a5)
   10d04:	01058593          	addi	a1,a1,16
   10d08:	01078793          	addi	a5,a5,16
   10d0c:	00867713          	andi	a4,a2,8
   10d10:	04070663          	beqz	a4,10d5c <memcpy+0x2b4>
   10d14:	0005cf03          	lbu	t5,0(a1)
   10d18:	0015ce83          	lbu	t4,1(a1)
   10d1c:	0025ce03          	lbu	t3,2(a1)
   10d20:	0035c303          	lbu	t1,3(a1)
   10d24:	0045c883          	lbu	a7,4(a1)
   10d28:	0055c803          	lbu	a6,5(a1)
   10d2c:	0065c683          	lbu	a3,6(a1)
   10d30:	0075c703          	lbu	a4,7(a1)
   10d34:	01e78023          	sb	t5,0(a5)
   10d38:	01d780a3          	sb	t4,1(a5)
   10d3c:	01c78123          	sb	t3,2(a5)
   10d40:	006781a3          	sb	t1,3(a5)
   10d44:	01178223          	sb	a7,4(a5)
   10d48:	010782a3          	sb	a6,5(a5)
   10d4c:	00d78323          	sb	a3,6(a5)
   10d50:	00e783a3          	sb	a4,7(a5)
   10d54:	00858593          	addi	a1,a1,8
   10d58:	00878793          	addi	a5,a5,8
   10d5c:	00467713          	andi	a4,a2,4
   10d60:	02070663          	beqz	a4,10d8c <memcpy+0x2e4>
   10d64:	0005c883          	lbu	a7,0(a1)
   10d68:	0015c803          	lbu	a6,1(a1)
   10d6c:	0025c683          	lbu	a3,2(a1)
   10d70:	0035c703          	lbu	a4,3(a1)
   10d74:	01178023          	sb	a7,0(a5)
   10d78:	010780a3          	sb	a6,1(a5)
   10d7c:	00d78123          	sb	a3,2(a5)
   10d80:	00e781a3          	sb	a4,3(a5)
   10d84:	00458593          	addi	a1,a1,4
   10d88:	00478793          	addi	a5,a5,4
   10d8c:	00267713          	andi	a4,a2,2
   10d90:	00070e63          	beqz	a4,10dac <memcpy+0x304>
   10d94:	0005c683          	lbu	a3,0(a1)
   10d98:	0015c703          	lbu	a4,1(a1)
   10d9c:	00278793          	addi	a5,a5,2
   10da0:	fed78f23          	sb	a3,-2(a5)
   10da4:	fee78fa3          	sb	a4,-1(a5)
   10da8:	00258593          	addi	a1,a1,2
   10dac:	00167613          	andi	a2,a2,1
   10db0:	00060663          	beqz	a2,10dbc <memcpy+0x314>
   10db4:	0005c703          	lbu	a4,0(a1)
   10db8:	00e78023          	sb	a4,0(a5)
   10dbc:	00813403          	ld	s0,8(sp)
   10dc0:	01010113          	addi	sp,sp,16
   10dc4:	00008067          	ret
   10dc8:	0037f713          	andi	a4,a5,3
   10dcc:	14070663          	beqz	a4,10f18 <memcpy+0x470>
   10dd0:	00267713          	andi	a4,a2,2
   10dd4:	00070e63          	beqz	a4,10df0 <memcpy+0x348>
   10dd8:	0005c683          	lbu	a3,0(a1)
   10ddc:	0015c703          	lbu	a4,1(a1)
   10de0:	00278793          	addi	a5,a5,2
   10de4:	fed78f23          	sb	a3,-2(a5)
   10de8:	fee78fa3          	sb	a4,-1(a5)
   10dec:	00258593          	addi	a1,a1,2
   10df0:	00167613          	andi	a2,a2,1
   10df4:	da060ae3          	beqz	a2,10ba8 <memcpy+0x100>
   10df8:	0005c703          	lbu	a4,0(a1)
   10dfc:	00e78023          	sb	a4,0(a5)
   10e00:	00008067          	ret
   10e04:	ff02f293          	andi	t0,t0,-16
   10e08:	00158593          	addi	a1,a1,1
   10e0c:	01128f93          	addi	t6,t0,17
   10e10:	00178393          	addi	t2,a5,1
   10e14:	01178023          	sb	a7,0(a5)
   10e18:	01f78fb3          	add	t6,a5,t6
   10e1c:	00058313          	mv	t1,a1
   10e20:	00038793          	mv	a5,t2
   10e24:	00332883          	lw	a7,3(t1)
   10e28:	00732803          	lw	a6,7(t1)
   10e2c:	00b32683          	lw	a3,11(t1)
   10e30:	00875e1b          	srliw	t3,a4,0x8
   10e34:	00f32703          	lw	a4,15(t1)
   10e38:	01889f1b          	slliw	t5,a7,0x18
   10e3c:	01881e9b          	slliw	t4,a6,0x18
   10e40:	0088d89b          	srliw	a7,a7,0x8
   10e44:	01ee6e33          	or	t3,t3,t5
   10e48:	01d8e8b3          	or	a7,a7,t4
   10e4c:	01869f1b          	slliw	t5,a3,0x18
   10e50:	0088581b          	srliw	a6,a6,0x8
   10e54:	0086d69b          	srliw	a3,a3,0x8
   10e58:	01871e9b          	slliw	t4,a4,0x18
   10e5c:	01e86833          	or	a6,a6,t5
   10e60:	01d6e6b3          	or	a3,a3,t4
   10e64:	01c7a023          	sw	t3,0(a5)
   10e68:	0117a223          	sw	a7,4(a5)
   10e6c:	0107a423          	sw	a6,8(a5)
   10e70:	00d7a623          	sw	a3,12(a5)
   10e74:	01078793          	addi	a5,a5,16
   10e78:	01030313          	addi	t1,t1,16
   10e7c:	faff94e3          	bne	t6,a5,10e24 <memcpy+0x37c>
   10e80:	fef60613          	addi	a2,a2,-17
   10e84:	de5ff06f          	j	10c68 <memcpy+0x1c0>
   10e88:	0015c683          	lbu	a3,1(a1)
   10e8c:	fec60293          	addi	t0,a2,-20
   10e90:	ff02f293          	andi	t0,t0,-16
   10e94:	01228f93          	addi	t6,t0,18
   10e98:	00258593          	addi	a1,a1,2
   10e9c:	00278393          	addi	t2,a5,2
   10ea0:	01178023          	sb	a7,0(a5)
   10ea4:	01f78fb3          	add	t6,a5,t6
   10ea8:	00d780a3          	sb	a3,1(a5)
   10eac:	00058313          	mv	t1,a1
   10eb0:	00038793          	mv	a5,t2
   10eb4:	00232883          	lw	a7,2(t1)
   10eb8:	00632803          	lw	a6,6(t1)
   10ebc:	00a32683          	lw	a3,10(t1)
   10ec0:	01075e1b          	srliw	t3,a4,0x10
   10ec4:	00e32703          	lw	a4,14(t1)
   10ec8:	01089f1b          	slliw	t5,a7,0x10
   10ecc:	01081e9b          	slliw	t4,a6,0x10
   10ed0:	0108d89b          	srliw	a7,a7,0x10
   10ed4:	01ee6e33          	or	t3,t3,t5
   10ed8:	01d8e8b3          	or	a7,a7,t4
   10edc:	01069f1b          	slliw	t5,a3,0x10
   10ee0:	0108581b          	srliw	a6,a6,0x10
   10ee4:	0106d69b          	srliw	a3,a3,0x10
   10ee8:	01071e9b          	slliw	t4,a4,0x10
   10eec:	01e86833          	or	a6,a6,t5
   10ef0:	01d6e6b3          	or	a3,a3,t4
   10ef4:	01c7a023          	sw	t3,0(a5)
   10ef8:	0117a223          	sw	a7,4(a5)
   10efc:	0107a423          	sw	a6,8(a5)
   10f00:	00d7a623          	sw	a3,12(a5)
   10f04:	01078793          	addi	a5,a5,16
   10f08:	01030313          	addi	t1,t1,16
   10f0c:	fbf794e3          	bne	a5,t6,10eb4 <memcpy+0x40c>
   10f10:	fee60613          	addi	a2,a2,-18
   10f14:	d55ff06f          	j	10c68 <memcpy+0x1c0>
   10f18:	00008067          	ret
   10f1c:	00060713          	mv	a4,a2
   10f20:	c21ff06f          	j	10b40 <memcpy+0x98>

0000000000010f24 <__set_thread_area>:
   10f24:	00050213          	mv	tp,a0
   10f28:	00000513          	li	a0,0
   10f2c:	00008067          	ret
